target datalayout = "e-m:e-p270:32:32-p271:32:32-p272:64:64-i64:64-i128:128-f80:128-n8:16:32:64-S128"
target triple = "x86_64-pc-linux-gnu"

%union.anon.0 = type { i64, [8 x i8] }

; Function Attrs: nounwind uwtable
define i64 @CRYPTO_nistcts128_encrypt(ptr noundef %0, ptr noundef %1, i64 noundef %2, ptr noundef %3, ptr noundef %4, ptr noundef %5) #0 {
  %7 = alloca i64, align 8
  %8 = alloca ptr, align 8
  %9 = alloca ptr, align 8
  %10 = alloca i64, align 8
  %11 = alloca ptr, align 8
  %12 = alloca ptr, align 8
  %13 = alloca ptr, align 8
  %14 = alloca i64, align 8
  %15 = alloca %union.anon.0, align 8
  %16 = alloca i32, align 4
  store ptr %0, ptr %8, align 8, !tbaa !3
  store ptr %1, ptr %9, align 8, !tbaa !3
  store i64 %2, ptr %10, align 8, !tbaa !8
  store ptr %3, ptr %11, align 8, !tbaa !10
  store ptr %4, ptr %12, align 8, !tbaa !3
  store ptr %5, ptr %13, align 8, !tbaa !10
  call void @llvm.lifetime.start.p0(i64 8, ptr %14) #5
  call void @llvm.lifetime.start.p0(i64 16, ptr %15) #5
  %17 = load i64, ptr %10, align 8, !tbaa !8
  %18 = icmp ult i64 %17, 16
  br i1 %18, label %19, label %20

19:                                               ; preds = %6
  store i64 0, ptr %7, align 8
  store i32 1, ptr %16, align 4
  br label %58

20:                                               ; preds = %6
  %21 = load i64, ptr %10, align 8, !tbaa !8
  %22 = urem i64 %21, 16
  store i64 %22, ptr %14, align 8, !tbaa !8
  %23 = load i64, ptr %14, align 8, !tbaa !8
  %24 = load i64, ptr %10, align 8, !tbaa !8
  %25 = sub i64 %24, %23
  store i64 %25, ptr %10, align 8, !tbaa !8
  %26 = load ptr, ptr %13, align 8, !tbaa !10
  %27 = load ptr, ptr %8, align 8, !tbaa !3
  %28 = load ptr, ptr %9, align 8, !tbaa !3
  %29 = load i64, ptr %10, align 8, !tbaa !8
  %30 = load ptr, ptr %11, align 8, !tbaa !10
  %31 = load ptr, ptr %12, align 8, !tbaa !3
  call void %26(ptr noundef %27, ptr noundef %28, i64 noundef %29, ptr noundef %30, ptr noundef %31, i32 noundef 1)
  %32 = load i64, ptr %14, align 8, !tbaa !8
  %33 = icmp eq i64 %32, 0
  br i1 %33, label %34, label %36

34:                                               ; preds = %20
  %35 = load i64, ptr %10, align 8, !tbaa !8
  store i64 %35, ptr %7, align 8
  store i32 1, ptr %16, align 4
  br label %58

36:                                               ; preds = %20
  %37 = load i64, ptr %10, align 8, !tbaa !8
  %38 = load ptr, ptr %8, align 8, !tbaa !3
  %39 = getelementptr inbounds nuw i8, ptr %38, i64 %37
  store ptr %39, ptr %8, align 8, !tbaa !3
  %40 = load i64, ptr %10, align 8, !tbaa !8
  %41 = load ptr, ptr %9, align 8, !tbaa !3
  %42 = getelementptr inbounds nuw i8, ptr %41, i64 %40
  store ptr %42, ptr %9, align 8, !tbaa !3
  %43 = getelementptr inbounds [16 x i8], ptr %15, i64 0, i64 0
  call void @llvm.memset.p0.i64(ptr align 8 %43, i8 0, i64 16, i1 false)
  %44 = getelementptr inbounds [16 x i8], ptr %15, i64 0, i64 0
  %45 = load ptr, ptr %8, align 8, !tbaa !3
  %46 = load i64, ptr %14, align 8, !tbaa !8
  call void @llvm.memcpy.p0.p0.i64(ptr align 8 %44, ptr align 1 %45, i64 %46, i1 false)
  %47 = load ptr, ptr %13, align 8, !tbaa !10
  %48 = getelementptr inbounds [16 x i8], ptr %15, i64 0, i64 0
  %49 = load ptr, ptr %9, align 8, !tbaa !3
  %50 = getelementptr inbounds i8, ptr %49, i64 -16
  %51 = load i64, ptr %14, align 8, !tbaa !8
  %52 = getelementptr inbounds nuw i8, ptr %50, i64 %51
  %53 = load ptr, ptr %11, align 8, !tbaa !10
  %54 = load ptr, ptr %12, align 8, !tbaa !3
  call void %47(ptr noundef %48, ptr noundef %52, i64 noundef 16, ptr noundef %53, ptr noundef %54, i32 noundef 1)
  %55 = load i64, ptr %10, align 8, !tbaa !8
  %56 = load i64, ptr %14, align 8, !tbaa !8
  %57 = add i64 %55, %56
  store i64 %57, ptr %7, align 8
  store i32 1, ptr %16, align 4
  br label %58

58:                                               ; preds = %36, %34, %19
  call void @llvm.lifetime.end.p0(i64 16, ptr %15) #5
  call void @llvm.lifetime.end.p0(i64 8, ptr %14) #5
  %59 = load i64, ptr %7, align 8
  ret i64 %59
}