; Function Attrs: nounwind uwtable
define range(i64 16, 1) i64 @CRYPTO_nistcts128_encrypt(ptr noundef %0, ptr noundef %1, i64 noundef %2, ptr noundef %3, ptr noundef %4, ptr noundef readonly captures(none) %5) local_unnamed_addr #0 {
  %7 = alloca %union.anon.0, align 8
  call void @llvm.lifetime.start.p0(i64 16, ptr nonnull %7) #5
  %8 = icmp ult i64 %2, 16
  br i1 %8, label %20, label %9

9:                                                ; preds = %6
  %10 = and i64 %2, 15
  %11 = and i64 %2, -16
  tail call void %5(ptr noundef %0, ptr noundef %1, i64 noundef %11, ptr noundef %3, ptr noundef %4, i32 noundef 1) #5
  %12 = icmp eq i64 %10, 0
  br i1 %12, label %20, label %13

13:                                               ; preds = %9
  %14 = getelementptr inbounds nuw i8, ptr %0, i64 %11
  %15 = getelementptr inbounds nuw i8, ptr %1, i64 %11
  %16 = sub nuw nsw i64 16, %10
  %17 = getelementptr i8, ptr %7, i64 %10
  call void @llvm.memset.p0.i64(ptr noundef nonnull align 1 dereferenceable(1) %17, i8 0, i64 %16, i1 false)
  call void @llvm.memcpy.p0.p0.i64(ptr nonnull align 8 %7, ptr align 1 %14, i64 %10, i1 false)
  %18 = getelementptr inbounds i8, ptr %15, i64 -16
  %19 = getelementptr inbounds nuw i8, ptr %18, i64 %10
  call void %5(ptr noundef nonnull %7, ptr noundef nonnull %19, i64 noundef 16, ptr noundef %3, ptr noundef %4, i32 noundef 1) #5
  br label %20

20:                                               ; preds = %9, %6, %13
  %.0 = phi i64 [ %2, %13 ], [ 0, %6 ], [ %11, %9 ]
  call void @llvm.lifetime.end.p0(i64 16, ptr nonnull %7) #5
  ret i64 %.0
}